target datalayout = "e-m:e-p270:32:32-p271:32:32-p272:64:64-i64:64-i128:128-f80:128-n8:16:32:64-S128"
target triple = "x86_64-pc-linux-gnu"

@len_byte_order = internal global i32 2, align 4

; Function Attrs: null_pointer_is_valid sspstrong uwtable
define internal i32 @get_iso8583_msg_len(ptr noundef %0, ptr noundef %1, i32 noundef %2, ptr noundef %3) #0 {
  %5 = alloca ptr, align 8
  %6 = alloca ptr, align 8
  %7 = alloca i32, align 4
  %8 = alloca ptr, align 8
  %9 = alloca i32, align 4
  store ptr %0, ptr %5, align 8
  store ptr %1, ptr %6, align 8
  store i32 %2, ptr %7, align 4
  store ptr %3, ptr %8, align 8
  call void @llvm.lifetime.start.p0(i64 4, ptr %9) #8
  %10 = load i32, ptr @len_byte_order, align 4
  %11 = icmp eq i32 %10, 1
  %12 = select i1 %11, i32 0, i32 -2147483648
  store i32 %12, ptr %9, align 4
  %13 = load ptr, ptr %6, align 8
  %14 = load i32, ptr %7, align 4
  %15 = load i32, ptr %9, align 4
  %16 = call zeroext i16 @tvb_get_uint16(ptr noundef %13, i32 noundef %14, i32 noundef %15)
  %17 = zext i16 %16 to i32
  %18 = add i32 %17, 2
  call void @llvm.lifetime.end.p0(i64 4, ptr %9) #8
  ret i32 %18
}