; Function Attrs: null_pointer_is_valid sspstrong uwtable
define internal range(i32 2, 65538) i32 @get_iso8583_msg_len(ptr readnone captures(none) %0, ptr noundef %1, i32 noundef %2, ptr readnone captures(none) %3) #0 {
  %5 = load i32, ptr @len_byte_order, align 4
  %6 = icmp eq i32 %5, 1
  %7 = select i1 %6, i32 0, i32 -2147483648
  %8 = tail call zeroext i16 @tvb_get_uint16(ptr noundef %1, i32 noundef %2, i32 noundef %7)
  %9 = zext i16 %8 to i32
  %10 = add nuw nsw i32 %9, 2
  ret i32 %10
}